; Function Attrs: mustprogress uwtable
define hidden range(i32 0, 2) i32 @cvCheckChessboard(ptr noundef %0, i64 %1) local_unnamed_addr #3 personality ptr @__gxx_personality_v0 {
  %3 = alloca %"class.cv::Mat", align 8
  %4 = alloca %"class.cv::_InputArray", align 8
  call void @_ZN2cv10cvarrToMatEPKvbbiPNS_10AutoBufferIdLm136EEE(ptr dead_on_unwind nonnull writable sret(%"class.cv::Mat") align 8 %3, ptr noundef %0, i1 noundef zeroext false, i1 noundef zeroext true, i32 noundef 0, ptr noundef null)
  %5 = getelementptr inbounds nuw i8, ptr %4, i64 16
  store i32 0, ptr %5, align 8
  %6 = getelementptr inbounds nuw i8, ptr %4, i64 20
  store i32 0, ptr %6, align 4
  store i32 16842752, ptr %4, align 8
  %7 = getelementptr inbounds nuw i8, ptr %4, i64 8
  store ptr %3, ptr %7, align 8
  %8 = invoke noundef zeroext i1 @_ZN2cv15checkChessboardERKNS_11_InputArrayENS_5Size_IiEE(ptr noundef nonnull align 8 dereferenceable(24) %4, i64 %1)
          to label %9 unwind label %11

9:                                                ; preds = %2
  %10 = zext i1 %8 to i32
  call void @_ZN2cv3MatD1Ev(ptr noundef nonnull align 8 dereferenceable(96) %3) #17
  ret i32 %10

11:                                               ; preds = %2
  %12 = landingpad { ptr, i32 }
          cleanup
  call void @_ZN2cv3MatD1Ev(ptr noundef nonnull align 8 dereferenceable(96) %3) #17
  resume { ptr, i32 } %12
}